Certificate:
    Data:
        Version: 1 (0x0)
        Serial Number: 2 (0x2)
    Signature Algorithm: sha512WithRSAEncryption
        Issuer: C=US, ST=CA, O=Open vSwitch, OU=controllerca, CN=OVS controllerca CA Certificate (2018 feb 15 15:37:38)
        Validity
            Not Before: Feb 15 14:37:39 2018 GMT
            Not After : Feb 13 14:37:39 2028 GMT
        Subject: C=US, ST=CA, O=Open vSwitch, OU=Open vSwitch certifier, CN=tmp id:80b6a36a-ad43-4dee-9001-3dbafdf38402
        Subject Public Key Info:
            Public Key Algorithm: rsaEncryption
                Public-Key: (2048 bit)
                Modulus:
                    00:e7:72:b5:ec:30:34:62:89:39:50:94:c4:b7:82:
                    1c:62:52:0e:fa:e3:63:33:e6:92:d1:e2:99:f6:bf:
                    ef:77:76:b1:9b:82:88:99:cb:f2:7c:9c:e1:74:4c:
                    f2:d4:01:62:71:da:e4:8d:aa:29:51:00:83:06:96:
                    27:75:f5:0c:82:ca:46:df:25:9f:57:9b:8e:d8:be:
                    bb:cc:7e:f1:e4:c5:68:b7:3b:05:e9:17:3a:b0:b4:
                    6a:74:2e:9c:6e:3f:b6:d7:69:49:12:42:a7:43:85:
                    11:3f:e4:82:c1:eb:fb:59:97:b6:80:c6:53:8e:3f:
                    3e:5d:12:5d:91:8a:ad:2b:52:70:85:7d:e3:d5:3e:
                    a6:48:0c:04:e7:09:11:c1:44:de:3d:e0:64:a4:52:
                    a7:86:9f:2d:7d:17:70:32:72:21:77:10:c9:d0:91:
                    0d:01:a7:59:0e:4d:fe:9d:62:da:08:a6:11:3e:ad:
                    01:53:82:01:9c:44:0d:cc:46:f9:39:a6:17:98:78:
                    74:a3:b0:0e:e2:e7:9f:4f:89:d2:b8:70:c0:7e:26:
                    07:fd:e2:5d:02:f0:2b:f6:32:4e:5d:bb:8b:64:59:
                    e8:f7:5e:02:3f:7e:14:48:dc:b3:1a:50:23:b6:a2:
                    ff:e1:20:25:ce:1e:c4:b9:f2:b5:89:6f:e3:8a:6f:
                    89:af
                Exponent: 65537 (0x10001)
    Signature Algorithm: sha512WithRSAEncryption
         ae:6e:d2:d7:94:61:30:78:59:65:6d:0d:92:02:da:19:89:67:
         1c:93:41:47:3a:39:49:a4:23:12:cd:6b:b6:48:42:38:a5:f8:
         3c:89:68:d9:a8:f0:4e:5a:91:56:c5:a3:d6:3f:8f:49:a1:07:
         68:bd:9a:dd:68:e9:46:f3:54:23:8a:77:bd:a6:66:d3:6a:30:
         97:1d:9f:6b:8b:59:fd:28:f9:a1:8d:24:33:45:fe:27:df:17:
         fc:d4:62:8f:60:2c:4d:f4:3c:33:dd:5b:7e:e8:a9:a9:43:33:
         ed:5c:46:9d:c3:31:19:b1:9e:fd:7e:7f:ae:b9:8d:3a:58:de:
         64:fe:cc:6b:60:bd:09:5a:8a:fe:4d:f8:b7:2a:75:e4:b5:b6:
         4e:2e:66:08:dc:c4:0f:34:69:8f:4c:07:1a:6c:c2:0e:bc:d8:
         59:df:e3:49:20:5d:70:af:e5:4f:78:d3:48:af:58:5e:d9:9f:
         7b:69:5a:b0:62:68:2c:1a:e3:bf:a3:8c:61:63:8b:59:f6:4f:
         7d:bd:d6:1a:d2:5f:24:96:63:5e:ff:0e:20:99:ea:89:18:b6:
         d2:b5:bc:ef:09:ff:65:b3:62:3e:54:b5:6a:c0:63:f6:55:e2:
         e0:1f:15:27:4d:20:cf:23:0f:09:a0:a3:0f:8b:34:95:39:ca:
         9b:aa:ed:62
-----BEGIN CERTIFICATE-----
MIIDhzCCAm8CAQIwDQYJKoZIhvcNAQENBQAwgYkxCzAJBgNVBAYTAlVTMQswCQYD
VQQIDAJDQTEVMBMGA1UECgwMT3BlbiB2U3dpdGNoMRUwEwYDVQQLDAxjb250cm9s
bGVyY2ExPzA9BgNVBAMMNk9WUyBjb250cm9sbGVyY2EgQ0EgQ2VydGlmaWNhdGUg
KDIwMTggZmViIDE1IDE1OjM3OjM4KTAeFw0xODAyMTUxNDM3MzlaFw0yODAyMTMx
NDM3MzlaMIGIMQswCQYDVQQGEwJVUzELMAkGA1UECAwCQ0ExFTATBgNVBAoMDE9w
ZW4gdlN3aXRjaDEfMB0GA1UECwwWT3BlbiB2U3dpdGNoIGNlcnRpZmllcjE0MDIG
A1UEAwwrdG1wIGlkOjgwYjZhMzZhLWFkNDMtNGRlZS05MDAxLTNkYmFmZGYzODQw
MjCCASIwDQYJKoZIhvcNAQEBBQADggEPADCCAQoCggEBAOdytewwNGKJOVCUxLeC
HGJSDvrjYzPmktHimfa/73d2sZuCiJnL8nyc4XRM8tQBYnHa5I2qKVEAgwaWJ3X1
DILKRt8ln1ebjti+u8x+8eTFaLc7BekXOrC0anQunG4/ttdpSRJCp0OFET/kgsHr
+1mXtoDGU44/Pl0SXZGKrStScIV949U+pkgMBOcJEcFE3j3gZKRSp4afLX0XcDJy
IXcQydCRDQGnWQ5N/p1i2gimET6tAVOCAZxEDcxG+TmmF5h4dKOwDuLnn0+J0rhw
wH4mB/3iXQLwK/YyTl27i2RZ6PdeAj9+FEjcsxpQI7ai/+EgJc4exLnytYlv44pv
ia8CAwEAATANBgkqhkiG9w0BAQ0FAAOCAQEArm7S15RhMHhZZW0NkgLaGYlnHJNB
Rzo5SaQjEs1rtkhCOKX4PIlo2ajwTlqRVsWj1j+PSaEHaL2a3WjpRvNUI4p3vaZm
02owlx2fa4tZ/Sj5oY0kM0X+J98X/NRij2AsTfQ8M91bfuipqUMz7VxGncMxGbGe
/X5/rrmNOljeZP7Ma2C9CVqK/k34typ15LW2Ti5mCNzEDzRpj0wHGmzCDrzYWd/j
SSBdcK/lT3jTSK9YXtmfe2lasGJoLBrjv6OMYWOLWfZPfb3WGtJfJJZjXv8OIJnq
iRi20rW87wn/ZbNiPlS1asBj9lXi4B8VJ00gzyMPCaCjD4s0lTnKm6rtYg==
-----END CERTIFICATE-----
