Certificate Request:
    Data:
        Version: 0 (0x0)
        Subject: C=US, ST=CA, L=Palo Alto, O=Open vSwitch, OU=Open vSwitch certifier, CN=tmp id:80b6a36a-ad43-4dee-9001-3dbafdf38402
        Subject Public Key Info:
            Public Key Algorithm: rsaEncryption
                Public-Key: (2048 bit)
                Modulus:
                    00:e7:72:b5:ec:30:34:62:89:39:50:94:c4:b7:82:
                    1c:62:52:0e:fa:e3:63:33:e6:92:d1:e2:99:f6:bf:
                    ef:77:76:b1:9b:82:88:99:cb:f2:7c:9c:e1:74:4c:
                    f2:d4:01:62:71:da:e4:8d:aa:29:51:00:83:06:96:
                    27:75:f5:0c:82:ca:46:df:25:9f:57:9b:8e:d8:be:
                    bb:cc:7e:f1:e4:c5:68:b7:3b:05:e9:17:3a:b0:b4:
                    6a:74:2e:9c:6e:3f:b6:d7:69:49:12:42:a7:43:85:
                    11:3f:e4:82:c1:eb:fb:59:97:b6:80:c6:53:8e:3f:
                    3e:5d:12:5d:91:8a:ad:2b:52:70:85:7d:e3:d5:3e:
                    a6:48:0c:04:e7:09:11:c1:44:de:3d:e0:64:a4:52:
                    a7:86:9f:2d:7d:17:70:32:72:21:77:10:c9:d0:91:
                    0d:01:a7:59:0e:4d:fe:9d:62:da:08:a6:11:3e:ad:
                    01:53:82:01:9c:44:0d:cc:46:f9:39:a6:17:98:78:
                    74:a3:b0:0e:e2:e7:9f:4f:89:d2:b8:70:c0:7e:26:
                    07:fd:e2:5d:02:f0:2b:f6:32:4e:5d:bb:8b:64:59:
                    e8:f7:5e:02:3f:7e:14:48:dc:b3:1a:50:23:b6:a2:
                    ff:e1:20:25:ce:1e:c4:b9:f2:b5:89:6f:e3:8a:6f:
                    89:af
                Exponent: 65537 (0x10001)
        Attributes:
            a0:00
    Signature Algorithm: sha256WithRSAEncryption
         8d:08:1b:47:d7:08:c1:04:b1:05:87:f8:0a:6f:5f:aa:72:bf:
         9f:f0:76:8c:56:1c:bb:bd:24:76:9a:79:b8:bc:d4:12:1c:f5:
         ca:4c:fe:ac:f3:a3:e8:a1:be:7a:03:8e:39:ac:fc:2b:07:e8:
         b2:d6:a3:ca:b1:21:9b:c9:7c:d2:fe:fe:d5:a4:7f:93:a0:48:
         f0:f8:13:c1:1c:00:69:e9:03:d4:3e:f2:af:63:80:be:a7:7a:
         0b:0c:da:65:6f:84:6b:56:0f:fb:72:59:b4:e1:49:aa:c8:2b:
         43:8f:a0:d2:8d:60:c8:ee:f1:b9:ae:8b:c8:d0:13:51:1c:7b:
         9b:e5:83:89:76:ef:27:9a:9e:c4:70:6b:11:b4:36:88:32:58:
         b6:92:a6:93:63:2c:23:07:23:28:1d:16:53:c0:f5:1d:f0:db:
         c7:e3:4e:70:c8:e7:71:2e:6d:6e:15:46:d0:d4:56:a2:bd:19:
         be:ee:83:72:78:4f:9e:ac:13:a2:33:70:d5:31:26:0d:4e:2c:
         b8:2d:19:f4:73:a6:c9:2e:a3:c9:b4:e8:67:20:c3:ef:86:f5:
         e3:77:95:19:84:fa:d2:29:ee:cb:c1:33:a0:8a:cd:65:f4:c9:
         9c:db:24:38:f7:53:1f:6c:87:98:94:6a:cb:a8:bf:38:5e:62:
         de:74:63:71
-----BEGIN CERTIFICATE REQUEST-----
MIIC4jCCAcoCAQAwgZwxCzAJBgNVBAYTAlVTMQswCQYDVQQIDAJDQTESMBAGA1UE
BwwJUGFsbyBBbHRvMRUwEwYDVQQKDAxPcGVuIHZTd2l0Y2gxHzAdBgNVBAsMFk9w
ZW4gdlN3aXRjaCBjZXJ0aWZpZXIxNDAyBgNVBAMMK3RtcCBpZDo4MGI2YTM2YS1h
ZDQzLTRkZWUtOTAwMS0zZGJhZmRmMzg0MDIwggEiMA0GCSqGSIb3DQEBAQUAA4IB
DwAwggEKAoIBAQDncrXsMDRiiTlQlMS3ghxiUg7642Mz5pLR4pn2v+93drGbgoiZ
y/J8nOF0TPLUAWJx2uSNqilRAIMGlid19QyCykbfJZ9Xm47YvrvMfvHkxWi3OwXp
FzqwtGp0LpxuP7bXaUkSQqdDhRE/5ILB6/tZl7aAxlOOPz5dEl2Riq0rUnCFfePV
PqZIDATnCRHBRN494GSkUqeGny19F3AyciF3EMnQkQ0Bp1kOTf6dYtoIphE+rQFT
ggGcRA3MRvk5pheYeHSjsA7i559PidK4cMB+Jgf94l0C8Cv2Mk5du4tkWej3XgI/
fhRI3LMaUCO2ov/hICXOHsS58rWJb+OKb4mvAgMBAAGgADANBgkqhkiG9w0BAQsF
AAOCAQEAjQgbR9cIwQSxBYf4Cm9fqnK/n/B2jFYcu70kdpp5uLzUEhz1ykz+rPOj
6KG+egOOOaz8KwfostajyrEhm8l80v7+1aR/k6BI8PgTwRwAaekD1D7yr2OAvqd6
CwzaZW+Ea1YP+3JZtOFJqsgrQ4+g0o1gyO7xua6LyNATURx7m+WDiXbvJ5qexHBr
EbQ2iDJYtpKmk2MsIwcjKB0WU8D1HfDbx+NOcMjncS5tbhVG0NRWor0Zvu6DcnhP
nqwTojNw1TEmDU4suC0Z9HOmyS6jybToZyDD74b143eVGYT60inuy8EzoIrNZfTJ
nNskOPdTH2yHmJRqy6i/OF5i3nRjcQ==
-----END CERTIFICATE REQUEST-----
